target datalayout = "e-m:e-p270:32:32-p271:32:32-p272:64:64-i64:64-i128:128-f80:128-n8:16:32:64-S128"
target triple = "x86_64-pc-linux-gnu"

%struct.archive_read = type { %struct.archive, ptr, i32, i64, i64, %struct.archive_read_client, [16 x %struct.archive_read_filter_bidder], ptr, i32, i64, i32, i32, [16 x %struct.archive_format_descriptor], ptr, ptr, ptr, %struct.anon }
%struct.archive = type { i32, i32, ptr, i32, ptr, i32, i32, ptr, %struct.archive_string, ptr, i32, i32, ptr, ptr, i64, i64, i64, i8, i64 }
%struct.archive_string = type { ptr, i64, i64 }
%struct.archive_read_client = type { ptr, ptr, ptr, ptr, ptr, ptr, i32, i32, i64, ptr }
%struct.archive_read_filter_bidder = type { ptr, ptr, ptr }
%struct.archive_format_descriptor = type { ptr, ptr, ptr, ptr, ptr, ptr, ptr, ptr, ptr, ptr, ptr }
%struct.anon = type { ptr, ptr, i32, ptr, ptr }
%struct.lha = type { i64, i64, i64, i16, i64, i8, [3 x i8], i64, i64, i32, i64, i64, i64, i64, i64, i64, i32, i64, i64, %struct.archive_string, %struct.archive_string, i16, i16, ptr, ptr, ptr, %struct.archive_string, %struct.archive_string, %struct.archive_wstring, i8, i8, i8, i8, i8, i8, i8, [64 x i8], %struct.lzh_stream }
%struct.archive_wstring = type { ptr, i64, i64 }
%struct.lzh_stream = type { ptr, i32, i64, ptr, i32, i64, ptr }
%struct.lzh_dec = type { i32, i32, i32, ptr, i32, i32, i32, %struct.lzh_br, %struct.huffman, %struct.huffman, i32, i32, i32, i32, i32, i32, i32, i32 }
%struct.lzh_br = type { i64, i32 }
%struct.huffman = type { i32, i32, i32, [17 x i32], ptr, i32, i32, i32, i32, i32, ptr, ptr }

; Function Attrs: nounwind uwtable
define internal void @lzh_huffman_free(ptr noundef %0) #0 {
  %2 = alloca ptr, align 8
  store ptr %0, ptr %2, align 8, !tbaa !168
  %3 = load ptr, ptr %2, align 8, !tbaa !168
  %4 = getelementptr inbounds nuw %struct.huffman, ptr %3, i32 0, i32 4
  %5 = load ptr, ptr %4, align 8, !tbaa !170
  call void @free(ptr noundef %5) #11
  %6 = load ptr, ptr %2, align 8, !tbaa !168
  %7 = getelementptr inbounds nuw %struct.huffman, ptr %6, i32 0, i32 10
  %8 = load ptr, ptr %7, align 8, !tbaa !171
  call void @free(ptr noundef %8) #11
  %9 = load ptr, ptr %2, align 8, !tbaa !168
  %10 = getelementptr inbounds nuw %struct.huffman, ptr %9, i32 0, i32 11
  %11 = load ptr, ptr %10, align 8, !tbaa !172
  call void @free(ptr noundef %11) #11
  ret void
}

; Function Attrs: nounwind uwtable
define internal void @lzh_decode_free(ptr noundef %0) #0 {
  %2 = alloca ptr, align 8
  store ptr %0, ptr %2, align 8, !tbaa !144
  %3 = load ptr, ptr %2, align 8, !tbaa !144
  %4 = getelementptr inbounds nuw %struct.lzh_stream, ptr %3, i32 0, i32 6
  %5 = load ptr, ptr %4, align 8, !tbaa !146
  %6 = icmp eq ptr %5, null
  br i1 %6, label %7, label %8

7:                                                ; preds = %1
  br label %27

8:                                                ; preds = %1
  %9 = load ptr, ptr %2, align 8, !tbaa !144
  %10 = getelementptr inbounds nuw %struct.lzh_stream, ptr %9, i32 0, i32 6
  %11 = load ptr, ptr %10, align 8, !tbaa !146
  %12 = getelementptr inbounds nuw %struct.lzh_dec, ptr %11, i32 0, i32 3
  %13 = load ptr, ptr %12, align 8, !tbaa !155
  call void @free(ptr noundef %13) #11
  %14 = load ptr, ptr %2, align 8, !tbaa !144
  %15 = getelementptr inbounds nuw %struct.lzh_stream, ptr %14, i32 0, i32 6
  %16 = load ptr, ptr %15, align 8, !tbaa !146
  %17 = getelementptr inbounds nuw %struct.lzh_dec, ptr %16, i32 0, i32 8
  call void @lzh_huffman_free(ptr noundef %17)
  %18 = load ptr, ptr %2, align 8, !tbaa !144
  %19 = getelementptr inbounds nuw %struct.lzh_stream, ptr %18, i32 0, i32 6
  %20 = load ptr, ptr %19, align 8, !tbaa !146
  %21 = getelementptr inbounds nuw %struct.lzh_dec, ptr %20, i32 0, i32 9
  call void @lzh_huffman_free(ptr noundef %21)
  %22 = load ptr, ptr %2, align 8, !tbaa !144
  %23 = getelementptr inbounds nuw %struct.lzh_stream, ptr %22, i32 0, i32 6
  %24 = load ptr, ptr %23, align 8, !tbaa !146
  call void @free(ptr noundef %24) #11
  %25 = load ptr, ptr %2, align 8, !tbaa !144
  %26 = getelementptr inbounds nuw %struct.lzh_stream, ptr %25, i32 0, i32 6
  store ptr null, ptr %26, align 8, !tbaa !146
  br label %27

27:                                               ; preds = %8, %7
  ret void
}

; Function Attrs: nounwind uwtable
define internal i32 @archive_read_format_lha_cleanup(ptr noundef %0) #0 {
  %2 = alloca ptr, align 8
  %3 = alloca ptr, align 8
  store ptr %0, ptr %2, align 8, !tbaa !9
  call void @llvm.lifetime.start.p0(i64 8, ptr %3) #11
  %4 = load ptr, ptr %2, align 8, !tbaa !9
  %5 = getelementptr inbounds nuw %struct.archive_read, ptr %4, i32 0, i32 13
  %6 = load ptr, ptr %5, align 8, !tbaa !35
  %7 = getelementptr inbounds nuw %struct.archive_format_descriptor, ptr %6, i32 0, i32 0
  %8 = load ptr, ptr %7, align 8, !tbaa !48
  store ptr %8, ptr %3, align 8, !tbaa !13
  %9 = load ptr, ptr %3, align 8, !tbaa !13
  %10 = getelementptr inbounds nuw %struct.lha, ptr %9, i32 0, i32 37
  call void @lzh_decode_free(ptr noundef %10)
  %11 = load ptr, ptr %3, align 8, !tbaa !13
  %12 = getelementptr inbounds nuw %struct.lha, ptr %11, i32 0, i32 26
  call void @archive_string_free(ptr noundef %12)
  %13 = load ptr, ptr %3, align 8, !tbaa !13
  %14 = getelementptr inbounds nuw %struct.lha, ptr %13, i32 0, i32 27
  call void @archive_string_free(ptr noundef %14)
  %15 = load ptr, ptr %3, align 8, !tbaa !13
  %16 = getelementptr inbounds nuw %struct.lha, ptr %15, i32 0, i32 19
  call void @archive_string_free(ptr noundef %16)
  %17 = load ptr, ptr %3, align 8, !tbaa !13
  %18 = getelementptr inbounds nuw %struct.lha, ptr %17, i32 0, i32 20
  call void @archive_string_free(ptr noundef %18)
  %19 = load ptr, ptr %3, align 8, !tbaa !13
  %20 = getelementptr inbounds nuw %struct.lha, ptr %19, i32 0, i32 28
  call void @archive_wstring_free(ptr noundef %20)
  %21 = load ptr, ptr %3, align 8, !tbaa !13
  call void @free(ptr noundef %21) #11
  %22 = load ptr, ptr %2, align 8, !tbaa !9
  %23 = getelementptr inbounds nuw %struct.archive_read, ptr %22, i32 0, i32 13
  %24 = load ptr, ptr %23, align 8, !tbaa !35
  %25 = getelementptr inbounds nuw %struct.archive_format_descriptor, ptr %24, i32 0, i32 0
  store ptr null, ptr %25, align 8, !tbaa !48
  call void @llvm.lifetime.end.p0(i64 8, ptr %3) #11
  ret i32 0
}