; Function Attrs: nounwind uwtable
define internal noundef i32 @archive_read_format_lha_cleanup(ptr noundef readonly captures(none) %0) #0 {
  %2 = getelementptr inbounds nuw i8, ptr %0, i64 2072
  %3 = load ptr, ptr %2, align 8, !tbaa !12
  %4 = load ptr, ptr %3, align 8, !tbaa !30
  %5 = getelementptr inbounds nuw i8, ptr %4, i64 416
  %6 = load ptr, ptr %5, align 8, !tbaa !103
  %7 = icmp eq ptr %6, null
  br i1 %7, label %lzh_decode_free.exit, label %8

8:                                                ; preds = %1
  %9 = getelementptr inbounds nuw i8, ptr %6, i64 16
  %10 = load ptr, ptr %9, align 8, !tbaa !112
  tail call void @free(ptr noundef %10) #18
  %11 = load ptr, ptr %5, align 8, !tbaa !103
  %12 = getelementptr inbounds nuw i8, ptr %11, i64 136
  %13 = load ptr, ptr %12, align 8, !tbaa !121
  tail call void @free(ptr noundef %13) #18
  %14 = getelementptr inbounds nuw i8, ptr %11, i64 168
  %15 = load ptr, ptr %14, align 8, !tbaa !122
  tail call void @free(ptr noundef %15) #18
  %16 = getelementptr inbounds nuw i8, ptr %11, i64 176
  %17 = load ptr, ptr %16, align 8, !tbaa !123
  tail call void @free(ptr noundef %17) #18
  %18 = load ptr, ptr %5, align 8, !tbaa !103
  %19 = getelementptr inbounds nuw i8, ptr %18, i64 264
  %20 = load ptr, ptr %19, align 8, !tbaa !121
  tail call void @free(ptr noundef %20) #18
  %21 = getelementptr inbounds nuw i8, ptr %18, i64 296
  %22 = load ptr, ptr %21, align 8, !tbaa !122
  tail call void @free(ptr noundef %22) #18
  %23 = getelementptr inbounds nuw i8, ptr %18, i64 304
  %24 = load ptr, ptr %23, align 8, !tbaa !123
  tail call void @free(ptr noundef %24) #18
  %25 = load ptr, ptr %5, align 8, !tbaa !103
  tail call void @free(ptr noundef %25) #18
  store ptr null, ptr %5, align 8, !tbaa !103
  br label %lzh_decode_free.exit

lzh_decode_free.exit:                             ; preds = %1, %8
  %26 = getelementptr inbounds nuw i8, ptr %4, i64 224
  tail call void @archive_string_free(ptr noundef nonnull %26) #18
  %27 = getelementptr inbounds nuw i8, ptr %4, i64 248
  tail call void @archive_string_free(ptr noundef nonnull %27) #18
  %28 = getelementptr inbounds nuw i8, ptr %4, i64 144
  tail call void @archive_string_free(ptr noundef nonnull %28) #18
  %29 = getelementptr inbounds nuw i8, ptr %4, i64 168
  tail call void @archive_string_free(ptr noundef nonnull %29) #18
  %30 = getelementptr inbounds nuw i8, ptr %4, i64 272
  tail call void @archive_wstring_free(ptr noundef nonnull %30) #18
  tail call void @free(ptr noundef nonnull %4) #18
  %31 = load ptr, ptr %2, align 8, !tbaa !12
  store ptr null, ptr %31, align 8, !tbaa !30
  ret i32 0
}